LIBRARY
EXPORTS
;
; libmythupnp uses these:
;
gContext
print_verbose_messages
_Z18safe_eno_to_stringi
_ZN9MSqlQuery7InitConEv
_ZN9MSqlQuery7prepareERK7QString
_ZN9MSqlQueryC1ERK14_MSqlQueryInfo
_ZN9MSqlQueryD1Ev
_ZN11MythContext10GetConfDirEv
_ZN11MythContext13GetNumSettingERK7QStringi
_ZN11MythContext10GetSettingERK7QStringS2_
_ZN11MythContext11GetShareDirEv
_ZN11MythContext11SaveSettingERK7QStringS2_
_ZN11MythContext11SaveSettingERK7QStringi
_ZN11MythContext13verbose_mutexE
_ZN14MythObservableC1Ev
_ZN14MythObservableC2Ev
_ZN14MythObservableD2Ev
_ZN14MythObservable8dispatchER9MythEvent
_ZN9HttpComms7getHttpER7QStringiiibPNS_11CredentialsEb
_ZN9HttpComms8postHttpER4QUrlP18QHttpRequestHeaderP9QIODeviceiiibPNS_11CredentialsEb
;
; and libmythui also uses these:
;
globalFontMap
_Z10myth_ejectv
_Z11myth_systemRK7QStringi
_ZN3LCD3GetEv
_ZN3LCD12switchToMenuEP8QPtrListI11LCDMenuItemE7QStringb
_ZN3LCD12switchToTimeEv
_ZN11MythContext7DBErrorERK7QStringRK9QSqlQuery
_ZN11MythContext20DoDisableScreensaverEv
_ZN11MythContext18DoResetScreensaverEv
_ZN11MythContext20DoRestoreScreensaverEv
_ZN11MythContext10FindPluginERK7QString
_ZN11MythContext11GetHostNameEv
_ZN11MythContext11GetLanguageEv
_ZN11MythContext21GetLanguageAndVariantEv
_ZN11MythContext13GetMainWindowEv
_ZN11MythContext13GetMediumFontEv
_ZN11MythContext15GetMenuThemeDirEv
_ZN11MythContext16getPluginManagerEv
_ZN11MythContext17GetScreenSettingsERiS0_RfS0_S0_S1_
_ZN11MythContext11GetThemeDirEv
_ZN11MythContext18GetThemeSearchPathEv
_ZN11MythContext14LoadScaleImageE7QStringb
_ZN11MythContext8qtconfigEv
_ZN11MythContext21SendReceiveStringListER11QStringListbb
_ZN11MythContext10SetSettingERK7QStringS2_
_ZN11MythContext11ThemeWidgetEP7QWidget
_ZN10MythDialog4execEv
_ZN18MythPasswordDialogC1E7QStringPbS0_P14MythMainWindowPKcb
_ZN17MythPluginManager10run_pluginERK7QString
_ZN17MythPluginManager13config_pluginERK7QString
_ZN8Settings10GetSettingE7QStringS0_
;
